target datalayout = "e-m:e-p270:32:32-p271:32:32-p272:64:64-i64:64-i128:128-f80:128-n8:16:32:64-S128"
target triple = "x86_64-pc-linux-gnu"

%struct.expert_field = type { i32, i32 }
%struct._packet_info = type { ptr, ptr, i32, i32, %struct.nstime_t, %struct.nstime_t, %struct.nstime_t, i8, ptr, ptr, ptr, ptr, %struct._address, %struct._address, %struct._address, %struct._address, %struct._address, %struct._address, i32, ptr, i8, [3 x i8], %struct.anon, i32, i32, i32, i32, ptr, i8, ptr, ptr, i16, i16, i32, i32, i16, i32, i32, ptr, ptr, ptr, i8, i8, i16, i16, i16, i32, i16, i16, ptr, ptr, ptr, ptr, ptr, i32, i32 }
%struct.nstime_t = type { i64, i32 }
%struct._address = type { i32, i32, ptr, ptr }
%struct.anon = type { i8, [3 x i8] }
%struct._mac_is_fragment = type { ptr, i32, i32, i16, i8, ptr }
%struct.mac_is_sdu = type { i32, i16, ptr, i32, ptr }

@hf_mac_is_reasmin = internal global i32 0, align 4
@hf_mac_is_fraglink = internal global i32 0, align 4
@ei_mac_macis_sdu_reassembled = internal global %struct.expert_field zeroinitializer, align 4
@.str.54 = private unnamed_addr constant [23 x i8] c"Reassembled MAC-is SDU\00", align 1
@ei_mac_macis_sdu_first = internal global %struct.expert_field zeroinitializer, align 4
@ei_mac_macis_sdu_middle = internal global %struct.expert_field zeroinitializer, align 4
@ei_mac_macis_sdu_last = internal global %struct.expert_field zeroinitializer, align 4
@.str.148 = private unnamed_addr constant [40 x i8] c"%u, payload: %u-%u (%u bytes) (TSN: %u)\00", align 1

; Function Attrs: null_pointer_is_valid sspstrong uwtable
define internal ptr @add_to_tree(ptr noundef %0, ptr noundef %1, ptr noundef %2, ptr noundef %3, i32 noundef %4, i16 noundef zeroext %5, i8 noundef zeroext %6) #1 {
  %8 = alloca ptr, align 8
  %9 = alloca ptr, align 8
  %10 = alloca ptr, align 8
  %11 = alloca ptr, align 8
  %12 = alloca ptr, align 8
  %13 = alloca i32, align 4
  %14 = alloca i16, align 2
  %15 = alloca i8, align 1
  %16 = alloca ptr, align 8
  %17 = alloca ptr, align 8
  %18 = alloca i32, align 4
  %19 = alloca i32, align 4
  store ptr %0, ptr %9, align 8
  store ptr %1, ptr %10, align 8
  store ptr %2, ptr %11, align 8
  store ptr %3, ptr %12, align 8
  store i32 %4, ptr %13, align 4
  store i16 %5, ptr %14, align 2
  store i8 %6, ptr %15, align 1
  call void @llvm.lifetime.start.p0(i64 8, ptr %16) #11
  store ptr null, ptr %16, align 8
  %20 = load ptr, ptr %12, align 8
  %21 = getelementptr inbounds nuw %struct.mac_is_sdu, ptr %20, i32 0, i32 0
  %22 = load i32, ptr %21, align 8
  %23 = load ptr, ptr %10, align 8
  %24 = getelementptr inbounds nuw %struct._packet_info, ptr %23, i32 0, i32 3
  %25 = load i32, ptr %24, align 4
  %26 = icmp eq i32 %22, %25
  br i1 %26, label %27, label %90

27:                                               ; preds = %7
  call void @llvm.lifetime.start.p0(i64 8, ptr %17) #11
  %28 = load ptr, ptr %12, align 8
  %29 = getelementptr inbounds nuw %struct.mac_is_sdu, ptr %28, i32 0, i32 4
  %30 = load ptr, ptr %29, align 8
  store ptr %30, ptr %17, align 8
  call void @llvm.lifetime.start.p0(i64 4, ptr %18) #11
  store i32 0, ptr %18, align 4
  %31 = load ptr, ptr %9, align 8
  %32 = load ptr, ptr %12, align 8
  %33 = getelementptr inbounds nuw %struct.mac_is_sdu, ptr %32, i32 0, i32 2
  %34 = load ptr, ptr %33, align 8
  %35 = load ptr, ptr %12, align 8
  %36 = getelementptr inbounds nuw %struct.mac_is_sdu, ptr %35, i32 0, i32 3
  %37 = load i32, ptr %36, align 8
  %38 = load ptr, ptr %12, align 8
  %39 = getelementptr inbounds nuw %struct.mac_is_sdu, ptr %38, i32 0, i32 3
  %40 = load i32, ptr %39, align 8
  %41 = call ptr @tvb_new_child_real_data(ptr noundef %31, ptr noundef %34, i32 noundef %37, i32 noundef %40)
  store ptr %41, ptr %16, align 8
  %42 = load ptr, ptr %10, align 8
  %43 = load ptr, ptr %16, align 8
  call void @add_new_data_source(ptr noundef %42, ptr noundef %43, ptr noundef @.str.54)
  %44 = load ptr, ptr %11, align 8
  %45 = load ptr, ptr %10, align 8
  %46 = load ptr, ptr %16, align 8
  %47 = call ptr @proto_tree_add_expert(ptr noundef %44, ptr noundef %45, ptr noundef @ei_mac_macis_sdu_reassembled, ptr noundef %46, i32 noundef 0, i32 noundef -1)
  br label %48

48:                                               ; preds = %51, %27
  %49 = load ptr, ptr %17, align 8
  %50 = icmp ne ptr %49, null
  br i1 %50, label %51, label %88

51:                                               ; preds = %48
  %52 = load ptr, ptr %11, align 8
  %53 = load i32, ptr @hf_mac_is_fraglink, align 4
  %54 = load ptr, ptr %16, align 8
  %55 = load i32, ptr %18, align 4
  %56 = load ptr, ptr %17, align 8
  %57 = getelementptr inbounds nuw %struct._mac_is_fragment, ptr %56, i32 0, i32 1
  %58 = load i32, ptr %57, align 8
  %59 = load ptr, ptr %17, align 8
  %60 = getelementptr inbounds nuw %struct._mac_is_fragment, ptr %59, i32 0, i32 2
  %61 = load i32, ptr %60, align 4
  %62 = load ptr, ptr %17, align 8
  %63 = getelementptr inbounds nuw %struct._mac_is_fragment, ptr %62, i32 0, i32 2
  %64 = load i32, ptr %63, align 4
  %65 = load i32, ptr %18, align 4
  %66 = load i32, ptr %18, align 4
  %67 = load ptr, ptr %17, align 8
  %68 = getelementptr inbounds nuw %struct._mac_is_fragment, ptr %67, i32 0, i32 1
  %69 = load i32, ptr %68, align 8
  %70 = add i32 %66, %69
  %71 = sub i32 %70, 1
  %72 = load ptr, ptr %17, align 8
  %73 = getelementptr inbounds nuw %struct._mac_is_fragment, ptr %72, i32 0, i32 1
  %74 = load i32, ptr %73, align 8
  %75 = load ptr, ptr %17, align 8
  %76 = getelementptr inbounds nuw %struct._mac_is_fragment, ptr %75, i32 0, i32 3
  %77 = load i16, ptr %76, align 8
  %78 = zext i16 %77 to i32
  %79 = call ptr (ptr, i32, ptr, i32, i32, i32, ptr, ...) @proto_tree_add_uint_format_value(ptr noundef %52, i32 noundef %53, ptr noundef %54, i32 noundef %55, i32 noundef %58, i32 noundef %61, ptr noundef @.str.148, i32 noundef %64, i32 noundef %65, i32 noundef %71, i32 noundef %74, i32 noundef %78)
  %80 = load ptr, ptr %17, align 8
  %81 = getelementptr inbounds nuw %struct._mac_is_fragment, ptr %80, i32 0, i32 1
  %82 = load i32, ptr %81, align 8
  %83 = load i32, ptr %18, align 4
  %84 = add i32 %83, %82
  store i32 %84, ptr %18, align 4
  %85 = load ptr, ptr %17, align 8
  %86 = getelementptr inbounds nuw %struct._mac_is_fragment, ptr %85, i32 0, i32 5
  %87 = load ptr, ptr %86, align 8
  store ptr %87, ptr %17, align 8
  br label %48, !llvm.loop !14

88:                                               ; preds = %48
  %89 = load ptr, ptr %16, align 8
  store ptr %89, ptr %8, align 8
  store i32 1, ptr %19, align 4
  call void @llvm.lifetime.end.p0(i64 4, ptr %18) #11
  call void @llvm.lifetime.end.p0(i64 8, ptr %17) #11
  br label %121

90:                                               ; preds = %7
  %91 = load ptr, ptr %9, align 8
  %92 = load i32, ptr %13, align 4
  %93 = load i16, ptr %14, align 2
  %94 = zext i16 %93 to i32
  %95 = call ptr @tvb_new_subset_length_caplen(ptr noundef %91, i32 noundef %92, i32 noundef %94, i32 noundef -1)
  store ptr %95, ptr %16, align 8
  %96 = load i8, ptr %15, align 1
  %97 = zext i8 %96 to i32
  switch i32 %97, label %113 [
    i32 0, label %98
    i32 1, label %103
    i32 2, label %108
  ]

98:                                               ; preds = %90
  %99 = load ptr, ptr %11, align 8
  %100 = load ptr, ptr %10, align 8
  %101 = load ptr, ptr %16, align 8
  %102 = call ptr @proto_tree_add_expert(ptr noundef %99, ptr noundef %100, ptr noundef @ei_mac_macis_sdu_first, ptr noundef %101, i32 noundef 0, i32 noundef -1)
  br label %113

103:                                              ; preds = %90
  %104 = load ptr, ptr %11, align 8
  %105 = load ptr, ptr %10, align 8
  %106 = load ptr, ptr %16, align 8
  %107 = call ptr @proto_tree_add_expert(ptr noundef %104, ptr noundef %105, ptr noundef @ei_mac_macis_sdu_middle, ptr noundef %106, i32 noundef 0, i32 noundef -1)
  br label %113

108:                                              ; preds = %90
  %109 = load ptr, ptr %11, align 8
  %110 = load ptr, ptr %10, align 8
  %111 = load ptr, ptr %16, align 8
  %112 = call ptr @proto_tree_add_expert(ptr noundef %109, ptr noundef %110, ptr noundef @ei_mac_macis_sdu_last, ptr noundef %111, i32 noundef 0, i32 noundef -1)
  br label %113

113:                                              ; preds = %90, %108, %103, %98
  %114 = load ptr, ptr %11, align 8
  %115 = load i32, ptr @hf_mac_is_reasmin, align 4
  %116 = load ptr, ptr %16, align 8
  %117 = load ptr, ptr %12, align 8
  %118 = getelementptr inbounds nuw %struct.mac_is_sdu, ptr %117, i32 0, i32 0
  %119 = load i32, ptr %118, align 8
  %120 = call ptr @proto_tree_add_uint(ptr noundef %114, i32 noundef %115, ptr noundef %116, i32 noundef 0, i32 noundef 0, i32 noundef %119)
  store ptr null, ptr %8, align 8
  store i32 1, ptr %19, align 4
  br label %121

121:                                              ; preds = %113, %88
  call void @llvm.lifetime.end.p0(i64 8, ptr %16) #11
  %122 = load ptr, ptr %8, align 8
  ret ptr %122
}