; Function Attrs: null_pointer_is_valid sspstrong uwtable
define internal fastcc noundef ptr @add_to_tree(ptr noundef %0, ptr noundef %1, ptr noundef %2, ptr noundef nonnull readonly captures(none) %3, i32 noundef %4, i16 noundef zeroext %5, i8 noundef zeroext range(i8 0, 3) %6) unnamed_addr #1 {
  %8 = load i32, ptr %3, align 8
  %9 = getelementptr inbounds nuw i8, ptr %1, i64 20
  %10 = load i32, ptr %9, align 4
  %11 = icmp eq i32 %8, %10
  br i1 %11, label %12, label %switch.lookup

12:                                               ; preds = %7
  %13 = getelementptr inbounds nuw i8, ptr %3, i64 24
  %14 = load ptr, ptr %13, align 8
  %15 = getelementptr inbounds nuw i8, ptr %3, i64 8
  %16 = load ptr, ptr %15, align 8
  %17 = getelementptr inbounds nuw i8, ptr %3, i64 16
  %18 = load i32, ptr %17, align 8
  %19 = tail call ptr @tvb_new_child_real_data(ptr noundef %0, ptr noundef %16, i32 noundef %18, i32 noundef %18)
  tail call void @add_new_data_source(ptr noundef %1, ptr noundef %19, ptr noundef nonnull @.str.54)
  %20 = tail call ptr @proto_tree_add_expert(ptr noundef %2, ptr noundef %1, ptr noundef nonnull @ei_mac_macis_sdu_reassembled, ptr noundef %19, i32 noundef 0, i32 noundef -1)
  %.not46 = icmp eq ptr %14, null
  br i1 %.not46, label %.loopexit, label %.lr.ph

.lr.ph:                                           ; preds = %12, %.lr.ph
  %.048 = phi i32 [ %33, %.lr.ph ], [ 0, %12 ]
  %.04447 = phi ptr [ %35, %.lr.ph ], [ %14, %12 ]
  %21 = load i32, ptr @hf_mac_is_fraglink, align 4
  %22 = getelementptr inbounds nuw i8, ptr %.04447, i64 8
  %23 = load i32, ptr %22, align 8
  %24 = getelementptr inbounds nuw i8, ptr %.04447, i64 12
  %25 = load i32, ptr %24, align 4
  %26 = add i32 %.048, -1
  %27 = add i32 %26, %23
  %28 = getelementptr inbounds nuw i8, ptr %.04447, i64 16
  %29 = load i16, ptr %28, align 8
  %30 = zext i16 %29 to i32
  %31 = tail call ptr (ptr, i32, ptr, i32, i32, i32, ptr, ...) @proto_tree_add_uint_format_value(ptr noundef %2, i32 noundef %21, ptr noundef %19, i32 noundef %.048, i32 noundef %23, i32 noundef %25, ptr noundef nonnull @.str.148, i32 noundef %25, i32 noundef %.048, i32 noundef %27, i32 noundef %23, i32 noundef %30)
  %32 = load i32, ptr %22, align 8
  %33 = add i32 %32, %.048
  %34 = getelementptr inbounds nuw i8, ptr %.04447, i64 24
  %35 = load ptr, ptr %34, align 8
  %.not = icmp eq ptr %35, null
  br i1 %.not, label %.loopexit, label %.lr.ph, !llvm.loop !14

switch.lookup:                                    ; preds = %7
  %36 = zext i16 %5 to i32
  %37 = tail call ptr @tvb_new_subset_length_caplen(ptr noundef %0, i32 noundef %4, i32 noundef %36, i32 noundef -1)
  %38 = zext nneg i8 %6 to i64
  %switch.gep = getelementptr inbounds nuw [3 x ptr], ptr @switch.table.add_to_tree, i64 0, i64 %38
  %switch.load = load ptr, ptr %switch.gep, align 8
  %39 = tail call ptr @proto_tree_add_expert(ptr noundef %2, ptr noundef %1, ptr noundef nonnull %switch.load, ptr noundef %37, i32 noundef 0, i32 noundef -1)
  %40 = load i32, ptr @hf_mac_is_reasmin, align 4
  %41 = load i32, ptr %3, align 8
  %42 = tail call ptr @proto_tree_add_uint(ptr noundef %2, i32 noundef %40, ptr noundef %37, i32 noundef 0, i32 noundef 0, i32 noundef %41)
  br label %.loopexit

.loopexit:                                        ; preds = %.lr.ph, %12, %switch.lookup
  %.045 = phi ptr [ null, %switch.lookup ], [ %19, %12 ], [ %19, %.lr.ph ]
  ret ptr %.045
}